target datalayout = "e-m:e-p270:32:32-p271:32:32-p272:64:64-i64:64-i128:128-f80:128-n8:16:32:64-S128"
target triple = "x86_64-pc-linux-gnu"

%struct._php_stream = type { ptr, ptr, %struct._php_stream_filter_chain, %struct._php_stream_filter_chain, ptr, ptr, %struct._zval_struct, i16, [16 x i8], i32, ptr, ptr, ptr, ptr, i64, ptr, i64, i64, i64, i64, ptr }
%struct._php_stream_filter_chain = type { ptr, ptr, ptr }
%struct._zval_struct = type { %union._zend_value, %union.anon, %union.anon.2 }
%union._zend_value = type { i64 }
%union.anon = type { i32 }
%union.anon.2 = type { i32 }
%struct.glob_s_t = type { %struct.glob_t, i64, i32, ptr, i64, ptr, i64, ptr, i64, i8 }
%struct.glob_t = type { i64, ptr, i64, i32, ptr, ptr, ptr, ptr, ptr }

; Function Attrs: nounwind uwtable
define internal i32 @php_glob_stream_close(ptr noundef %0, i32 noundef %1) #0 {
  %3 = alloca ptr, align 8
  %4 = alloca i32, align 4
  %5 = alloca ptr, align 8
  store ptr %0, ptr %3, align 8
  store i32 %1, ptr %4, align 4
  %6 = load ptr, ptr %3, align 8
  %7 = getelementptr inbounds %struct._php_stream, ptr %6, i32 0, i32 1
  %8 = load ptr, ptr %7, align 8
  store ptr %8, ptr %5, align 8
  %9 = load ptr, ptr %5, align 8
  %10 = icmp ne ptr %9, null
  br i1 %10, label %11, label %43

11:                                               ; preds = %2
  %12 = load ptr, ptr %5, align 8
  %13 = getelementptr inbounds %struct.glob_s_t, ptr %12, i32 0, i32 1
  store i64 0, ptr %13, align 8
  %14 = load ptr, ptr %5, align 8
  %15 = getelementptr inbounds %struct.glob_s_t, ptr %14, i32 0, i32 0
  call void @globfree(ptr noundef %15) #9
  %16 = load ptr, ptr %5, align 8
  %17 = getelementptr inbounds %struct.glob_s_t, ptr %16, i32 0, i32 3
  %18 = load ptr, ptr %17, align 8
  %19 = icmp ne ptr %18, null
  br i1 %19, label %20, label %24

20:                                               ; preds = %11
  %21 = load ptr, ptr %5, align 8
  %22 = getelementptr inbounds %struct.glob_s_t, ptr %21, i32 0, i32 3
  %23 = load ptr, ptr %22, align 8
  call void @_efree(ptr noundef %23)
  br label %24

24:                                               ; preds = %20, %11
  %25 = load ptr, ptr %5, align 8
  %26 = getelementptr inbounds %struct.glob_s_t, ptr %25, i32 0, i32 5
  %27 = load ptr, ptr %26, align 8
  %28 = icmp ne ptr %27, null
  br i1 %28, label %29, label %33

29:                                               ; preds = %24
  %30 = load ptr, ptr %5, align 8
  %31 = getelementptr inbounds %struct.glob_s_t, ptr %30, i32 0, i32 5
  %32 = load ptr, ptr %31, align 8
  call void @_efree(ptr noundef %32)
  br label %33

33:                                               ; preds = %29, %24
  %34 = load ptr, ptr %5, align 8
  %35 = getelementptr inbounds %struct.glob_s_t, ptr %34, i32 0, i32 7
  %36 = load ptr, ptr %35, align 8
  %37 = icmp ne ptr %36, null
  br i1 %37, label %38, label %42

38:                                               ; preds = %33
  %39 = load ptr, ptr %5, align 8
  %40 = getelementptr inbounds %struct.glob_s_t, ptr %39, i32 0, i32 7
  %41 = load ptr, ptr %40, align 8
  call void @_efree(ptr noundef %41)
  br label %42

42:                                               ; preds = %38, %33
  br label %43

43:                                               ; preds = %42, %2
  %44 = load ptr, ptr %3, align 8
  %45 = getelementptr inbounds %struct._php_stream, ptr %44, i32 0, i32 1
  %46 = load ptr, ptr %45, align 8
  call void @_efree(ptr noundef %46)
  ret i32 0
}