; Function Attrs: nounwind uwtable
define internal noundef i32 @php_glob_stream_close(ptr nocapture noundef readonly %0, i32 %1) #1 {
  %3 = getelementptr inbounds i8, ptr %0, i64 8
  %4 = load ptr, ptr %3, align 8
  %.not = icmp eq ptr %4, null
  br i1 %.not, label %18, label %5

5:                                                ; preds = %2
  %6 = getelementptr inbounds i8, ptr %4, i64 72
  store i64 0, ptr %6, align 8
  tail call void @globfree(ptr noundef nonnull %4) #10
  %7 = getelementptr inbounds i8, ptr %4, i64 88
  %8 = load ptr, ptr %7, align 8
  %.not14 = icmp eq ptr %8, null
  br i1 %.not14, label %10, label %9

9:                                                ; preds = %5
  tail call void @_efree(ptr noundef nonnull %8) #10
  br label %10

10:                                               ; preds = %9, %5
  %11 = getelementptr inbounds i8, ptr %4, i64 104
  %12 = load ptr, ptr %11, align 8
  %.not15 = icmp eq ptr %12, null
  br i1 %.not15, label %14, label %13

13:                                               ; preds = %10
  tail call void @_efree(ptr noundef nonnull %12) #10
  br label %14

14:                                               ; preds = %13, %10
  %15 = getelementptr inbounds i8, ptr %4, i64 120
  %16 = load ptr, ptr %15, align 8
  %.not16 = icmp eq ptr %16, null
  br i1 %.not16, label %18, label %17

17:                                               ; preds = %14
  tail call void @_efree(ptr noundef nonnull %16) #10
  br label %18

18:                                               ; preds = %14, %17, %2
  %19 = load ptr, ptr %3, align 8
  tail call void @_efree(ptr noundef %19) #10
  ret i32 0
}